; Function Attrs: mustprogress nounwind uwtable
define dso_local noundef i32 @_ZN5clang6Parser21ReenterTemplateScopesERNS0_15MultiParseScopeEPNS_4DeclE(ptr noundef nonnull align 8 dereferenceable(2936) %0, ptr noundef nonnull align 8 dereferenceable(12) %1, ptr noundef %2) local_unnamed_addr #0 align 2 {
  %4 = alloca %class.anon, align 8
  %5 = getelementptr inbounds nuw i8, ptr %0, i64 88
  %6 = load ptr, ptr %5, align 8
  store ptr %1, ptr %4, align 8
  %7 = getelementptr inbounds nuw i8, ptr %4, i64 8
  store ptr %0, ptr %7, align 8
  %8 = ptrtoint ptr %4 to i64
  %9 = call noundef i32 @_ZN5clang4Sema25ActOnReenterTemplateScopeEPNS_4DeclEN4llvm12function_refIFPNS_5ScopeEvEEE(ptr noundef nonnull align 8 dereferenceable(17560) %6, ptr noundef %2, ptr nonnull @"_ZN4llvm12function_refIFPN5clang5ScopeEvEE11callback_fnIZNS1_6Parser21ReenterTemplateScopesERNS7_15MultiParseScopeEPNS1_4DeclEE3$_0EES3_l", i64 %8) #16
  ret i32 %9
}